; ModuleID = '29/1246.c'
source_filename = "29/1246.c"
target datalayout = "e-m:e-p270:32:32-p271:32:32-p272:64:64-i64:64-f80:128-n8:16:32:64-S128"
target triple = "x86_64-pc-linux-gnu"

@.str = private unnamed_addr constant [3 x i8] c"%d\00", align 1
@.str.1 = private unnamed_addr constant [7 x i8] c"%.3lf\0A\00", align 1

; Function Attrs: noinline nounwind uwtable
define dso_local i32 @main() #0 {
  %1 = alloca i32, align 4
  %2 = alloca i32, align 4
  %3 = alloca i32, align 4
  %4 = alloca i32, align 4
  %5 = alloca double, align 8
  %6 = alloca [100 x double], align 16
  %7 = alloca double, align 8
  %8 = alloca double, align 8
  %9 = alloca double, align 8
  %10 = alloca i32, align 4
  %11 = alloca i32, align 4
  %12 = alloca i32, align 4
  store i32 0, i32* %1, align 4
  store i32 0, i32* %3, align 4
  store double 1.000000e+00, double* %7, align 8
  store double 2.000000e+00, double* %8, align 8
  store double 0.000000e+00, double* %9, align 8
  %13 = call i32 (i8*, ...) @__isoc99_scanf(i8* getelementptr inbounds ([3 x i8], [3 x i8]* @.str, i64 0, i64 0), i32* %2)
  store i32 0, i32* %10, align 4
  br label %14

14:                                               ; preds = %45, %0
  %15 = load i32, i32* %10, align 4
  %16 = load i32, i32* %2, align 4
  %17 = icmp slt i32 %15, %16
  br i1 %17, label %18, label %48

18:                                               ; preds = %14
  %19 = call i32 (i8*, ...) @__isoc99_scanf(i8* getelementptr inbounds ([3 x i8], [3 x i8]* @.str, i64 0, i64 0), i32* %4)
  store i32 0, i32* %11, align 4
  br label %20

20:                                               ; preds = %35, %18
  %21 = load i32, i32* %11, align 4
  %22 = load i32, i32* %4, align 4
  %23 = icmp slt i32 %21, %22
  br i1 %23, label %24, label %38

24:                                               ; preds = %20
  %25 = load double, double* %8, align 8
  %26 = load double, double* %7, align 8
  %27 = fdiv double %25, %26
  %28 = load double, double* %9, align 8
  %29 = fadd double %27, %28
  store double %29, double* %9, align 8
  %30 = load double, double* %7, align 8
  store double %30, double* %5, align 8
  %31 = load double, double* %8, align 8
  store double %31, double* %7, align 8
  %32 = load double, double* %8, align 8
  %33 = load double, double* %5, align 8
  %34 = fadd double %32, %33
  store double %34, double* %8, align 8
  br label %35

35:                                               ; preds = %24
  %36 = load i32, i32* %11, align 4
  %37 = add nsw i32 %36, 1
  store i32 %37, i32* %11, align 4
  br label %20

38:                                               ; preds = %20
  %39 = load double, double* %9, align 8
  %40 = load i32, i32* %3, align 4
  %41 = sext i32 %40 to i64
  %42 = getelementptr inbounds [100 x double], [100 x double]* %6, i64 0, i64 %41
  store double %39, double* %42, align 8
  %43 = load i32, i32* %3, align 4
  %44 = add nsw i32 %43, 1
  store i32 %44, i32* %3, align 4
  store double 0.000000e+00, double* %9, align 8
  store double 1.000000e+00, double* %7, align 8
  store double 2.000000e+00, double* %8, align 8
  br label %45

45:                                               ; preds = %38
  %46 = load i32, i32* %10, align 4
  %47 = add nsw i32 %46, 1
  store i32 %47, i32* %10, align 4
  br label %14

48:                                               ; preds = %14
  store i32 0, i32* %12, align 4
  br label %49

49:                                               ; preds = %59, %48
  %50 = load i32, i32* %12, align 4
  %51 = load i32, i32* %2, align 4
  %52 = icmp slt i32 %50, %51
  br i1 %52, label %53, label %62

53:                                               ; preds = %49
  %54 = load i32, i32* %12, align 4
  %55 = sext i32 %54 to i64
  %56 = getelementptr inbounds [100 x double], [100 x double]* %6, i64 0, i64 %55
  %57 = load double, double* %56, align 8
  %58 = call i32 (i8*, ...) @printf(i8* getelementptr inbounds ([7 x i8], [7 x i8]* @.str.1, i64 0, i64 0), double %57)
  br label %59

59:                                               ; preds = %53
  %60 = load i32, i32* %12, align 4
  %61 = add nsw i32 %60, 1
  store i32 %61, i32* %12, align 4
  br label %49

62:                                               ; preds = %49
  ret i32 0
}

declare dso_local i32 @__isoc99_scanf(i8*, ...) #1

declare dso_local i32 @printf(i8*, ...) #1


!llvm.module.flags = !{!0}
!llvm.ident = !{!1}

!0 = !{i32 1, !"wchar_size", i32 4}
!1 = !{!"clang version 10.0.0-4ubuntu1 "}
